target datalayout = "e-m:e-p270:32:32-p271:32:32-p272:64:64-i64:64-i128:128-f80:128-n8:16:32:64-S128"
target triple = "x86_64-pc-linux-gnu"

%struct._zend_refcounted_h = type { i32, %union.anon.3 }
%union.anon.3 = type { i32 }
%struct._zend_string = type { %struct._zend_refcounted_h, i64, i64, [1 x i8] }
%struct.smart_str = type { ptr, i64 }

; Function Attrs: alwaysinline nounwind uwtable
define internal i64 @smart_str_alloc(ptr noundef %0, i64 noundef %1, i1 noundef zeroext %2) #4 {
  %4 = alloca ptr, align 8
  %5 = alloca i64, align 8
  %6 = alloca i8, align 1
  store ptr %0, ptr %4, align 8, !tbaa !30
  store i64 %1, ptr %5, align 8, !tbaa !24
  %7 = zext i1 %2 to i8
  store i8 %7, ptr %6, align 1, !tbaa !34
  %8 = load ptr, ptr %4, align 8, !tbaa !30
  %9 = getelementptr inbounds nuw %struct.smart_str, ptr %8, i32 0, i32 0
  %10 = load ptr, ptr %9, align 8, !tbaa !69
  %11 = icmp ne ptr %10, null
  %12 = xor i1 %11, true
  %13 = xor i1 %12, true
  %14 = xor i1 %13, true
  %15 = zext i1 %14 to i32
  %16 = sext i32 %15 to i64
  %17 = call i64 @llvm.expect.i64(i64 %16, i64 0)
  %18 = icmp ne i64 %17, 0
  br i1 %18, label %19, label %20

19:                                               ; preds = %3
  br label %40

20:                                               ; preds = %3
  %21 = load ptr, ptr %4, align 8, !tbaa !30
  %22 = getelementptr inbounds nuw %struct.smart_str, ptr %21, i32 0, i32 0
  %23 = load ptr, ptr %22, align 8, !tbaa !69
  %24 = getelementptr inbounds nuw %struct._zend_string, ptr %23, i32 0, i32 2
  %25 = load i64, ptr %24, align 8, !tbaa !31
  %26 = load i64, ptr %5, align 8, !tbaa !24
  %27 = add i64 %26, %25
  store i64 %27, ptr %5, align 8, !tbaa !24
  %28 = load i64, ptr %5, align 8, !tbaa !24
  %29 = load ptr, ptr %4, align 8, !tbaa !30
  %30 = getelementptr inbounds nuw %struct.smart_str, ptr %29, i32 0, i32 1
  %31 = load i64, ptr %30, align 8, !tbaa !103
  %32 = icmp uge i64 %28, %31
  %33 = xor i1 %32, true
  %34 = xor i1 %33, true
  %35 = zext i1 %34 to i32
  %36 = sext i32 %35 to i64
  %37 = call i64 @llvm.expect.i64(i64 %36, i64 0)
  %38 = icmp ne i64 %37, 0
  br i1 %38, label %39, label %50

39:                                               ; preds = %20
  br label %40

40:                                               ; preds = %39, %19
  %41 = load i8, ptr %6, align 1, !tbaa !34, !range !36, !noundef !37
  %42 = trunc i8 %41 to i1
  br i1 %42, label %43, label %46

43:                                               ; preds = %40
  %44 = load ptr, ptr %4, align 8, !tbaa !30
  %45 = load i64, ptr %5, align 8, !tbaa !24
  call void @smart_str_realloc(ptr noundef %44, i64 noundef %45)
  br label %49

46:                                               ; preds = %40
  %47 = load ptr, ptr %4, align 8, !tbaa !30
  %48 = load i64, ptr %5, align 8, !tbaa !24
  call void @smart_str_erealloc(ptr noundef %47, i64 noundef %48)
  br label %49

49:                                               ; preds = %46, %43
  br label %50

50:                                               ; preds = %49, %20
  br label %51

51:                                               ; preds = %50
  %52 = load i64, ptr %5, align 8, !tbaa !24
  ret i64 %52
}

; Function Attrs: nounwind uwtable
define internal i32 @_php_iconv_appendl(ptr noundef %0, ptr noundef %1, i64 noundef %2, ptr noundef %3) #0 {
  %5 = alloca i32, align 4
  %6 = alloca ptr, align 8
  %7 = alloca ptr, align 8
  %8 = alloca i64, align 8
  %9 = alloca ptr, align 8
  %10 = alloca ptr, align 8
  %11 = alloca i64, align 8
  %12 = alloca ptr, align 8
  %13 = alloca i64, align 8
  %14 = alloca i64, align 8
  %15 = alloca i32, align 4
  store ptr %0, ptr %6, align 8, !tbaa !30
  store ptr %1, ptr %7, align 8, !tbaa !23
  store i64 %2, ptr %8, align 8, !tbaa !24
  store ptr %3, ptr %9, align 8, !tbaa !30
  call void @llvm.lifetime.start.p0(i64 8, ptr %10) #15
  %16 = load ptr, ptr %7, align 8, !tbaa !23
  store ptr %16, ptr %10, align 8, !tbaa !23
  call void @llvm.lifetime.start.p0(i64 8, ptr %11) #15
  %17 = load i64, ptr %8, align 8, !tbaa !24
  store i64 %17, ptr %11, align 8, !tbaa !24
  call void @llvm.lifetime.start.p0(i64 8, ptr %12) #15
  call void @llvm.lifetime.start.p0(i64 8, ptr %13) #15
  store i64 0, ptr %13, align 8, !tbaa !24
  call void @llvm.lifetime.start.p0(i64 8, ptr %14) #15
  store i64 128, ptr %14, align 8, !tbaa !24
  %18 = load ptr, ptr %10, align 8, !tbaa !23
  %19 = icmp ne ptr %18, null
  br i1 %19, label %20, label %63

20:                                               ; preds = %4
  br label %21

21:                                               ; preds = %50, %20
  %22 = load i64, ptr %11, align 8, !tbaa !24
  %23 = icmp ugt i64 %22, 0
  br i1 %23, label %24, label %62

24:                                               ; preds = %21
  %25 = load i64, ptr %14, align 8, !tbaa !24
  store i64 %25, ptr %13, align 8, !tbaa !24
  %26 = load ptr, ptr %6, align 8, !tbaa !30
  %27 = load i64, ptr %13, align 8, !tbaa !24
  %28 = call i64 @smart_str_alloc(ptr noundef %26, i64 noundef %27, i1 noundef zeroext false)
  %29 = load ptr, ptr %6, align 8, !tbaa !30
  %30 = getelementptr inbounds nuw %struct.smart_str, ptr %29, i32 0, i32 0
  %31 = load ptr, ptr %30, align 8, !tbaa !69
  %32 = getelementptr inbounds nuw %struct._zend_string, ptr %31, i32 0, i32 3
  %33 = getelementptr inbounds [1 x i8], ptr %32, i64 0, i64 0
  %34 = load ptr, ptr %6, align 8, !tbaa !30
  %35 = getelementptr inbounds nuw %struct.smart_str, ptr %34, i32 0, i32 0
  %36 = load ptr, ptr %35, align 8, !tbaa !69
  %37 = getelementptr inbounds nuw %struct._zend_string, ptr %36, i32 0, i32 2
  %38 = load i64, ptr %37, align 8, !tbaa !31
  %39 = getelementptr inbounds nuw i8, ptr %33, i64 %38
  store ptr %39, ptr %12, align 8, !tbaa !23
  %40 = load ptr, ptr %9, align 8, !tbaa !30
  %41 = call i64 @iconv(ptr noundef %40, ptr noundef %10, ptr noundef %11, ptr noundef %12, ptr noundef %13)
  %42 = icmp eq i64 %41, -1
  br i1 %42, label %43, label %50

43:                                               ; preds = %24
  %44 = call ptr @__errno_location() #16
  %45 = load i32, ptr %44, align 4, !tbaa !4
  switch i32 %45, label %48 [
    i32 22, label %46
    i32 84, label %47
    i32 7, label %49
  ]

46:                                               ; preds = %43
  store i32 5, ptr %5, align 4
  store i32 1, ptr %15, align 4
  br label %113

47:                                               ; preds = %43
  store i32 4, ptr %5, align 4
  store i32 1, ptr %15, align 4
  br label %113

48:                                               ; preds = %43
  store i32 6, ptr %5, align 4
  store i32 1, ptr %15, align 4
  br label %113

49:                                               ; preds = %43
  br label %50

50:                                               ; preds = %49, %24
  %51 = load i64, ptr %14, align 8, !tbaa !24
  %52 = load i64, ptr %13, align 8, !tbaa !24
  %53 = sub i64 %51, %52
  %54 = load ptr, ptr %6, align 8, !tbaa !30
  %55 = getelementptr inbounds nuw %struct.smart_str, ptr %54, i32 0, i32 0
  %56 = load ptr, ptr %55, align 8, !tbaa !69
  %57 = getelementptr inbounds nuw %struct._zend_string, ptr %56, i32 0, i32 2
  %58 = load i64, ptr %57, align 8, !tbaa !31
  %59 = add i64 %58, %53
  store i64 %59, ptr %57, align 8, !tbaa !31
  %60 = load i64, ptr %14, align 8, !tbaa !24
  %61 = shl i64 %60, 1
  store i64 %61, ptr %14, align 8, !tbaa !24
  br label %21

62:                                               ; preds = %21
  br label %112

63:                                               ; preds = %4
  br label %64

64:                                               ; preds = %99, %63
  %65 = load i64, ptr %14, align 8, !tbaa !24
  store i64 %65, ptr %13, align 8, !tbaa !24
  %66 = load ptr, ptr %6, align 8, !tbaa !30
  %67 = load i64, ptr %13, align 8, !tbaa !24
  %68 = call i64 @smart_str_alloc(ptr noundef %66, i64 noundef %67, i1 noundef zeroext false)
  %69 = load ptr, ptr %6, align 8, !tbaa !30
  %70 = getelementptr inbounds nuw %struct.smart_str, ptr %69, i32 0, i32 0
  %71 = load ptr, ptr %70, align 8, !tbaa !69
  %72 = getelementptr inbounds nuw %struct._zend_string, ptr %71, i32 0, i32 3
  %73 = getelementptr inbounds [1 x i8], ptr %72, i64 0, i64 0
  %74 = load ptr, ptr %6, align 8, !tbaa !30
  %75 = getelementptr inbounds nuw %struct.smart_str, ptr %74, i32 0, i32 0
  %76 = load ptr, ptr %75, align 8, !tbaa !69
  %77 = getelementptr inbounds nuw %struct._zend_string, ptr %76, i32 0, i32 2
  %78 = load i64, ptr %77, align 8, !tbaa !31
  %79 = getelementptr inbounds nuw i8, ptr %73, i64 %78
  store ptr %79, ptr %12, align 8, !tbaa !23
  %80 = load ptr, ptr %9, align 8, !tbaa !30
  %81 = call i64 @iconv(ptr noundef %80, ptr noundef null, ptr noundef null, ptr noundef %12, ptr noundef %13)
  %82 = icmp eq i64 %81, 0
  br i1 %82, label %83, label %93

83:                                               ; preds = %64
  %84 = load i64, ptr %14, align 8, !tbaa !24
  %85 = load i64, ptr %13, align 8, !tbaa !24
  %86 = sub i64 %84, %85
  %87 = load ptr, ptr %6, align 8, !tbaa !30
  %88 = getelementptr inbounds nuw %struct.smart_str, ptr %87, i32 0, i32 0
  %89 = load ptr, ptr %88, align 8, !tbaa !69
  %90 = getelementptr inbounds nuw %struct._zend_string, ptr %89, i32 0, i32 2
  %91 = load i64, ptr %90, align 8, !tbaa !31
  %92 = add i64 %91, %86
  store i64 %92, ptr %90, align 8, !tbaa !31
  br label %111

93:                                               ; preds = %64
  %94 = call ptr @__errno_location() #16
  %95 = load i32, ptr %94, align 4, !tbaa !4
  %96 = icmp ne i32 %95, 7
  br i1 %96, label %97, label %98

97:                                               ; preds = %93
  store i32 6, ptr %5, align 4
  store i32 1, ptr %15, align 4
  br label %113

98:                                               ; preds = %93
  br label %99

99:                                               ; preds = %98
  %100 = load i64, ptr %14, align 8, !tbaa !24
  %101 = load i64, ptr %13, align 8, !tbaa !24
  %102 = sub i64 %100, %101
  %103 = load ptr, ptr %6, align 8, !tbaa !30
  %104 = getelementptr inbounds nuw %struct.smart_str, ptr %103, i32 0, i32 0
  %105 = load ptr, ptr %104, align 8, !tbaa !69
  %106 = getelementptr inbounds nuw %struct._zend_string, ptr %105, i32 0, i32 2
  %107 = load i64, ptr %106, align 8, !tbaa !31
  %108 = add i64 %107, %102
  store i64 %108, ptr %106, align 8, !tbaa !31
  %109 = load i64, ptr %14, align 8, !tbaa !24
  %110 = shl i64 %109, 1
  store i64 %110, ptr %14, align 8, !tbaa !24
  br label %64

111:                                              ; preds = %83
  br label %112

112:                                              ; preds = %111, %62
  store i32 0, ptr %5, align 4
  store i32 1, ptr %15, align 4
  br label %113

113:                                              ; preds = %112, %97, %48, %47, %46
  call void @llvm.lifetime.end.p0(i64 8, ptr %14) #15
  call void @llvm.lifetime.end.p0(i64 8, ptr %13) #15
  call void @llvm.lifetime.end.p0(i64 8, ptr %12) #15
  call void @llvm.lifetime.end.p0(i64 8, ptr %11) #15
  call void @llvm.lifetime.end.p0(i64 8, ptr %10) #15
  %114 = load i32, ptr %5, align 4
  ret i32 %114
}