; Function Attrs: nounwind uwtable
define internal fastcc range(i32 0, 7) i32 @_php_iconv_appendl(ptr noundef nonnull %0, ptr noundef %1, i64 noundef %2, ptr noundef %3) unnamed_addr #0 {
  %5 = alloca ptr, align 8
  %6 = alloca i64, align 8
  %7 = alloca ptr, align 8
  %8 = alloca i64, align 8
  call void @llvm.lifetime.start.p0(i64 8, ptr nonnull %5) #16
  store ptr %1, ptr %5, align 8, !tbaa !7
  call void @llvm.lifetime.start.p0(i64 8, ptr nonnull %6) #16
  store i64 %2, ptr %6, align 8, !tbaa !14
  call void @llvm.lifetime.start.p0(i64 8, ptr nonnull %7) #16
  call void @llvm.lifetime.start.p0(i64 8, ptr nonnull %8) #16
  %.not = icmp eq ptr %1, null
  br i1 %.not, label %.preheader, label %.preheader30

.preheader30:                                     ; preds = %4
  %.not2233 = icmp eq i64 %2, 0
  br i1 %.not2233, label %.loopexit, label %.lr.ph

.lr.ph:                                           ; preds = %.preheader30
  %9 = getelementptr inbounds nuw i8, ptr %0, i64 8
  %.pre = load ptr, ptr %0, align 8, !tbaa !57
  br label %11

.preheader:                                       ; preds = %4
  %10 = getelementptr inbounds nuw i8, ptr %0, i64 8
  %.pre41 = load ptr, ptr %0, align 8, !tbaa !57
  br label %36

11:                                               ; preds = %.lr.ph, %28
  %12 = phi ptr [ %.pre, %.lr.ph ], [ %31, %28 ]
  %.034 = phi i64 [ 128, %.lr.ph ], [ %35, %28 ]
  store i64 %.034, ptr %8, align 8, !tbaa !14
  %.not.i = icmp eq ptr %12, null
  br i1 %.not.i, label %18, label %13, !prof !59

13:                                               ; preds = %11
  %14 = getelementptr inbounds nuw i8, ptr %12, i64 16
  %15 = load i64, ptr %14, align 8, !tbaa !20
  %16 = add i64 %15, %.034
  %17 = load i64, ptr %9, align 8, !tbaa !60
  %.not12.i = icmp ult i64 %16, %17
  br i1 %.not12.i, label %smart_str_alloc.exit, label %18, !prof !21

18:                                               ; preds = %13, %11
  %.0.i = phi i64 [ %.034, %11 ], [ %16, %13 ]
  call void @smart_str_erealloc(ptr noundef nonnull %0, i64 noundef %.0.i) #16
  %.pre39 = load ptr, ptr %0, align 8, !tbaa !57
  %.phi.trans.insert = getelementptr inbounds nuw i8, ptr %.pre39, i64 16
  %.pre40 = load i64, ptr %.phi.trans.insert, align 8, !tbaa !20
  br label %smart_str_alloc.exit

smart_str_alloc.exit:                             ; preds = %13, %18
  %19 = phi i64 [ %15, %13 ], [ %.pre40, %18 ]
  %20 = phi ptr [ %12, %13 ], [ %.pre39, %18 ]
  %21 = getelementptr inbounds nuw i8, ptr %20, i64 24
  %22 = getelementptr inbounds nuw i8, ptr %21, i64 %19
  store ptr %22, ptr %7, align 8, !tbaa !7
  %23 = call i64 @iconv(ptr noundef %3, ptr noundef nonnull %5, ptr noundef nonnull %6, ptr noundef nonnull %7, ptr noundef nonnull %8) #16
  %24 = icmp eq i64 %23, -1
  br i1 %24, label %25, label %28

25:                                               ; preds = %smart_str_alloc.exit
  %26 = tail call ptr @__errno_location() #18
  %27 = load i32, ptr %26, align 4, !tbaa !12
  switch i32 %27, label %.loopexit [
    i32 22, label %.loopexit.loopexit47
    i32 84, label %.loopexit.loopexit50
    i32 7, label %28
  ]

28:                                               ; preds = %25, %smart_str_alloc.exit
  %29 = load i64, ptr %8, align 8, !tbaa !14
  %30 = sub i64 %.034, %29
  %31 = load ptr, ptr %0, align 8, !tbaa !57
  %32 = getelementptr inbounds nuw i8, ptr %31, i64 16
  %33 = load i64, ptr %32, align 8, !tbaa !20
  %34 = add i64 %30, %33
  store i64 %34, ptr %32, align 8, !tbaa !20
  %35 = shl i64 %.034, 1
  %.pr = load i64, ptr %6, align 8, !tbaa !14
  %.not22 = icmp eq i64 %.pr, 0
  br i1 %.not22, label %.loopexit, label %11

36:                                               ; preds = %.preheader, %60
  %37 = phi ptr [ %63, %60 ], [ %.pre41, %.preheader ]
  %.1 = phi i64 [ %67, %60 ], [ 128, %.preheader ]
  store i64 %.1, ptr %8, align 8, !tbaa !14
  %.not.i23 = icmp eq ptr %37, null
  br i1 %.not.i23, label %43, label %38, !prof !59

38:                                               ; preds = %36
  %39 = getelementptr inbounds nuw i8, ptr %37, i64 16
  %40 = load i64, ptr %39, align 8, !tbaa !20
  %41 = add i64 %40, %.1
  %42 = load i64, ptr %10, align 8, !tbaa !60
  %.not12.i24 = icmp ult i64 %41, %42
  br i1 %.not12.i24, label %smart_str_alloc.exit27, label %43, !prof !21

43:                                               ; preds = %38, %36
  %.0.i25 = phi i64 [ %.1, %36 ], [ %41, %38 ]
  call void @smart_str_erealloc(ptr noundef nonnull %0, i64 noundef %.0.i25) #16
  %.pre42 = load ptr, ptr %0, align 8, !tbaa !57
  %.phi.trans.insert43 = getelementptr inbounds nuw i8, ptr %.pre42, i64 16
  %.pre44 = load i64, ptr %.phi.trans.insert43, align 8, !tbaa !20
  br label %smart_str_alloc.exit27

smart_str_alloc.exit27:                           ; preds = %38, %43
  %44 = phi i64 [ %40, %38 ], [ %.pre44, %43 ]
  %45 = phi ptr [ %37, %38 ], [ %.pre42, %43 ]
  %46 = getelementptr inbounds nuw i8, ptr %45, i64 24
  %47 = getelementptr inbounds nuw i8, ptr %46, i64 %44
  store ptr %47, ptr %7, align 8, !tbaa !7
  %48 = call i64 @iconv(ptr noundef %3, ptr noundef null, ptr noundef null, ptr noundef nonnull %7, ptr noundef nonnull %8) #16
  %49 = icmp eq i64 %48, 0
  br i1 %49, label %50, label %57

50:                                               ; preds = %smart_str_alloc.exit27
  %51 = load i64, ptr %8, align 8, !tbaa !14
  %52 = sub i64 %.1, %51
  %53 = load ptr, ptr %0, align 8, !tbaa !57
  %54 = getelementptr inbounds nuw i8, ptr %53, i64 16
  %55 = load i64, ptr %54, align 8, !tbaa !20
  %56 = add i64 %52, %55
  store i64 %56, ptr %54, align 8, !tbaa !20
  br label %.loopexit

57:                                               ; preds = %smart_str_alloc.exit27
  %58 = tail call ptr @__errno_location() #18
  %59 = load i32, ptr %58, align 4, !tbaa !12
  %.not21 = icmp eq i32 %59, 7
  br i1 %.not21, label %60, label %.loopexit

60:                                               ; preds = %57
  %61 = load i64, ptr %8, align 8, !tbaa !14
  %62 = sub i64 %.1, %61
  %63 = load ptr, ptr %0, align 8, !tbaa !57
  %64 = getelementptr inbounds nuw i8, ptr %63, i64 16
  %65 = load i64, ptr %64, align 8, !tbaa !20
  %66 = add i64 %62, %65
  store i64 %66, ptr %64, align 8, !tbaa !20
  %67 = shl i64 %.1, 1
  br label %36

.loopexit.loopexit47:                             ; preds = %25
  br label %.loopexit

.loopexit.loopexit50:                             ; preds = %25
  br label %.loopexit

.loopexit:                                        ; preds = %28, %57, %25, %.loopexit.loopexit50, %.loopexit.loopexit47, %.preheader30, %50
  %.020 = phi i32 [ 0, %50 ], [ 0, %.preheader30 ], [ 5, %.loopexit.loopexit47 ], [ 6, %25 ], [ 6, %57 ], [ 0, %28 ], [ 4, %.loopexit.loopexit50 ]
  call void @llvm.lifetime.end.p0(i64 8, ptr nonnull %8) #16
  call void @llvm.lifetime.end.p0(i64 8, ptr nonnull %7) #16
  call void @llvm.lifetime.end.p0(i64 8, ptr nonnull %6) #16
  call void @llvm.lifetime.end.p0(i64 8, ptr nonnull %5) #16
  ret i32 %.020
}